target datalayout = "e-m:e-p270:32:32-p271:32:32-p272:64:64-i64:64-i128:128-f80:128-n8:16:32:64-S128"
target triple = "x86_64-pc-linux-gnu"

%struct._packet_info = type { ptr, ptr, i32, i32, %struct.nstime_t, %struct.nstime_t, %struct.nstime_t, i8, ptr, ptr, ptr, ptr, %struct._address, %struct._address, %struct._address, %struct._address, %struct._address, %struct._address, i32, ptr, i8, [3 x i8], %struct.anon, i32, i32, i32, i32, ptr, i8, ptr, ptr, i16, i16, i32, i32, i16, i32, i32, ptr, ptr, ptr, i8, i8, i16, i16, i16, i32, i16, i16, ptr, ptr, ptr, ptr, ptr, i32, i32 }
%struct.nstime_t = type { i64, i32 }
%struct._address = type { i32, i32, ptr, ptr }
%struct.anon = type { i8, [3 x i8] }

@.str.233 = private unnamed_addr constant [1 x i8] zeroinitializer, align 1

; Function Attrs: null_pointer_is_valid sspstrong uwtable
define internal void @format_text_reorder_32(ptr noundef %0, ptr noundef %1, ptr noundef %2, i32 noundef %3, i32 noundef %4, i32 noundef %5) #0 {
  %7 = alloca ptr, align 8
  %8 = alloca ptr, align 8
  %9 = alloca ptr, align 8
  %10 = alloca i32, align 4
  %11 = alloca i32, align 4
  %12 = alloca i32, align 4
  %13 = alloca ptr, align 8
  %14 = alloca ptr, align 8
  %15 = alloca i64, align 8
  %16 = alloca i32, align 4
  %17 = alloca i32, align 4
  store ptr %0, ptr %7, align 8
  store ptr %1, ptr %8, align 8
  store ptr %2, ptr %9, align 8
  store i32 %3, ptr %10, align 4
  store i32 %4, ptr %11, align 4
  store i32 %5, ptr %12, align 4
  call void @llvm.lifetime.start.p0(i64 8, ptr %13) #4
  %18 = load ptr, ptr %9, align 8
  %19 = getelementptr inbounds nuw %struct._packet_info, ptr %18, i32 0, i32 51
  %20 = load ptr, ptr %19, align 8
  %21 = call noalias ptr @wmem_strbuf_new(ptr noundef %20, ptr noundef @.str.233)
  store ptr %21, ptr %13, align 8
  call void @llvm.lifetime.start.p0(i64 8, ptr %14) #4
  call void @llvm.lifetime.start.p0(i64 8, ptr %15) #4
  call void @llvm.lifetime.start.p0(i64 4, ptr %16) #4
  store i32 0, ptr %16, align 4
  br label %22

22:                                               ; preds = %53, %6
  %23 = load i32, ptr %16, align 4
  %24 = load i32, ptr %12, align 4
  %25 = icmp slt i32 %23, %24
  br i1 %25, label %27, label %26

26:                                               ; preds = %22
  call void @llvm.lifetime.end.p0(i64 4, ptr %16) #4
  br label %56

27:                                               ; preds = %22
  call void @llvm.lifetime.start.p0(i64 4, ptr %17) #4
  %28 = load ptr, ptr %8, align 8
  %29 = load i32, ptr %11, align 4
  %30 = load i32, ptr %16, align 4
  %31 = add i32 %29, %30
  %32 = call i32 @tvb_get_ntohl(ptr noundef %28, i32 noundef %31)
  store i32 %32, ptr %17, align 4
  %33 = load ptr, ptr %13, align 8
  %34 = load i32, ptr %17, align 4
  %35 = lshr i32 %34, 0
  %36 = and i32 255, %35
  %37 = trunc i32 %36 to i8
  call void @wmem_strbuf_append_c(ptr noundef %33, i8 noundef signext %37)
  %38 = load ptr, ptr %13, align 8
  %39 = load i32, ptr %17, align 4
  %40 = lshr i32 %39, 8
  %41 = and i32 255, %40
  %42 = trunc i32 %41 to i8
  call void @wmem_strbuf_append_c(ptr noundef %38, i8 noundef signext %42)
  %43 = load ptr, ptr %13, align 8
  %44 = load i32, ptr %17, align 4
  %45 = lshr i32 %44, 16
  %46 = and i32 255, %45
  %47 = trunc i32 %46 to i8
  call void @wmem_strbuf_append_c(ptr noundef %43, i8 noundef signext %47)
  %48 = load ptr, ptr %13, align 8
  %49 = load i32, ptr %17, align 4
  %50 = lshr i32 %49, 24
  %51 = and i32 255, %50
  %52 = trunc i32 %51 to i8
  call void @wmem_strbuf_append_c(ptr noundef %48, i8 noundef signext %52)
  call void @llvm.lifetime.end.p0(i64 4, ptr %17) #4
  br label %53

53:                                               ; preds = %27
  %54 = load i32, ptr %16, align 4
  %55 = add i32 %54, 4
  store i32 %55, ptr %16, align 4
  br label %22, !llvm.loop !14

56:                                               ; preds = %26
  %57 = load ptr, ptr %13, align 8
  %58 = call zeroext i1 @wmem_strbuf_utf8_validate(ptr noundef %57, ptr noundef null)
  br i1 %58, label %61, label %59

59:                                               ; preds = %56
  %60 = load ptr, ptr %13, align 8
  call void @wmem_strbuf_utf8_make_valid(ptr noundef %60)
  br label %61

61:                                               ; preds = %59, %56
  %62 = load ptr, ptr %13, align 8
  %63 = call ptr @wmem_strbuf_get_str(ptr noundef %62)
  store ptr %63, ptr %14, align 8
  %64 = load ptr, ptr %13, align 8
  %65 = call i64 @wmem_strbuf_get_len(ptr noundef %64)
  store i64 %65, ptr %15, align 8
  br label %66

66:                                               ; preds = %79, %61
  %67 = load i64, ptr %15, align 8
  %68 = icmp ugt i64 %67, 0
  br i1 %68, label %69, label %77

69:                                               ; preds = %66
  %70 = load ptr, ptr %14, align 8
  %71 = load i64, ptr %15, align 8
  %72 = sub i64 %71, 1
  %73 = getelementptr i8, ptr %70, i64 %72
  %74 = load i8, ptr %73, align 1
  %75 = sext i8 %74 to i32
  %76 = icmp eq i32 %75, 0
  br label %77

77:                                               ; preds = %69, %66
  %78 = phi i1 [ false, %66 ], [ %76, %69 ]
  br i1 %78, label %79, label %82

79:                                               ; preds = %77
  %80 = load i64, ptr %15, align 8
  %81 = add i64 %80, -1
  store i64 %81, ptr %15, align 8
  br label %66, !llvm.loop !15

82:                                               ; preds = %77
  %83 = load ptr, ptr %7, align 8
  %84 = load i32, ptr %10, align 4
  %85 = load ptr, ptr %8, align 8
  %86 = load i32, ptr %11, align 4
  %87 = load i32, ptr %12, align 4
  %88 = load ptr, ptr %9, align 8
  %89 = getelementptr inbounds nuw %struct._packet_info, ptr %88, i32 0, i32 51
  %90 = load ptr, ptr %89, align 8
  %91 = load ptr, ptr %14, align 8
  %92 = load i64, ptr %15, align 8
  %93 = call ptr @format_text(ptr noundef %90, ptr noundef %91, i64 noundef %92)
  %94 = call ptr @proto_tree_add_string(ptr noundef %83, i32 noundef %84, ptr noundef %85, i32 noundef %86, i32 noundef %87, ptr noundef %93)
  call void @llvm.lifetime.end.p0(i64 8, ptr %15) #4
  call void @llvm.lifetime.end.p0(i64 8, ptr %14) #4
  call void @llvm.lifetime.end.p0(i64 8, ptr %13) #4
  ret void
}