; Function Attrs: null_pointer_is_valid sspstrong uwtable
define internal fastcc void @format_text_reorder_32(ptr noundef %0, ptr noundef %1, ptr noundef readonly captures(none) %2, i32 noundef %3, i32 noundef %4, i32 noundef range(i32 0, 262141) %5) unnamed_addr #0 {
  %7 = getelementptr inbounds nuw i8, ptr %2, i64 408
  %8 = load ptr, ptr %7, align 8
  %9 = tail call noalias ptr @wmem_strbuf_new(ptr noundef %8, ptr noundef nonnull @.str.233)
  %.not39 = icmp eq i32 %5, 0
  br i1 %.not39, label %._crit_edge, label %.lr.ph

._crit_edge:                                      ; preds = %.lr.ph, %6
  %10 = tail call zeroext i1 @wmem_strbuf_utf8_validate(ptr noundef %9, ptr noundef null)
  br i1 %10, label %23, label %22

.lr.ph:                                           ; preds = %6, %.lr.ph
  %.03032 = phi i32 [ %20, %.lr.ph ], [ 0, %6 ]
  %11 = add i32 %.03032, %4
  %12 = tail call i32 @tvb_get_ntohl(ptr noundef %1, i32 noundef %11)
  %13 = trunc i32 %12 to i8
  tail call void @wmem_strbuf_append_c(ptr noundef %9, i8 noundef signext %13)
  %14 = lshr i32 %12, 8
  %15 = trunc i32 %14 to i8
  tail call void @wmem_strbuf_append_c(ptr noundef %9, i8 noundef signext %15)
  %16 = lshr i32 %12, 16
  %17 = trunc i32 %16 to i8
  tail call void @wmem_strbuf_append_c(ptr noundef %9, i8 noundef signext %17)
  %18 = lshr i32 %12, 24
  %19 = trunc nuw i32 %18 to i8
  tail call void @wmem_strbuf_append_c(ptr noundef %9, i8 noundef signext %19)
  %20 = add nuw nsw i32 %.03032, 4
  %21 = icmp samesign ult i32 %20, %5
  br i1 %21, label %.lr.ph, label %._crit_edge, !llvm.loop !14

22:                                               ; preds = %._crit_edge
  tail call void @wmem_strbuf_utf8_make_valid(ptr noundef %9)
  br label %23

23:                                               ; preds = %22, %._crit_edge
  %24 = tail call ptr @wmem_strbuf_get_str(ptr noundef %9)
  %25 = tail call i64 @wmem_strbuf_get_len(ptr noundef %9)
  %invariant.gep = getelementptr i8, ptr %24, i64 -1
  %.not33 = icmp eq i64 %25, 0
  br i1 %.not33, label %.critedge, label %.lr.ph36

.lr.ph36:                                         ; preds = %23, %28
  %.034 = phi i64 [ %29, %28 ], [ %25, %23 ]
  %gep = getelementptr i8, ptr %invariant.gep, i64 %.034
  %26 = load i8, ptr %gep, align 1
  %27 = icmp eq i8 %26, 0
  br i1 %27, label %28, label %.critedge

28:                                               ; preds = %.lr.ph36
  %29 = add i64 %.034, -1
  %.not = icmp eq i64 %29, 0
  br i1 %.not, label %.critedge, label %.lr.ph36, !llvm.loop !15

.critedge:                                        ; preds = %.lr.ph36, %28, %23
  %.0.lcssa = phi i64 [ 0, %23 ], [ 0, %28 ], [ %.034, %.lr.ph36 ]
  %30 = load ptr, ptr %7, align 8
  %31 = tail call ptr @format_text(ptr noundef %30, ptr noundef %24, i64 noundef %.0.lcssa)
  %32 = tail call ptr @proto_tree_add_string(ptr noundef %0, i32 noundef %3, ptr noundef %1, i32 noundef %4, i32 noundef %5, ptr noundef %31)
  ret void
}